; Function Attrs: nounwind uwtable
define void @Cba_ManPrintDistribStat(ptr noundef readonly captures(none) %0, ptr noundef readonly captures(none) %1, ptr noundef readonly captures(none) %2) local_unnamed_addr #1 {
  %4 = getelementptr inbounds nuw i8, ptr %0, i64 1552
  %5 = load i32, ptr %4, align 8
  %6 = icmp sgt i32 %5, 0
  br i1 %6, label %Cba_ManNtkIsOk.exit.i.i, label %Cba_ManRoot.exit

Cba_ManNtkIsOk.exit.i.i:                          ; preds = %3
  %7 = getelementptr i8, ptr %0, i64 1564
  %.val.i.i.i = load i32, ptr %7, align 4
  %.not.i.i = icmp slt i32 %5, %.val.i.i.i
  br i1 %.not.i.i, label %8, label %Cba_ManRoot.exit

8:                                                ; preds = %Cba_ManNtkIsOk.exit.i.i
  %9 = getelementptr i8, ptr %0, i64 1568
  %.val.i.i = load ptr, ptr %9, align 8
  %10 = zext nneg i32 %5 to i64
  %11 = getelementptr inbounds nuw ptr, ptr %.val.i.i, i64 %10
  %12 = load ptr, ptr %11, align 8
  br label %Cba_ManRoot.exit

Cba_ManRoot.exit:                                 ; preds = %3, %Cba_ManNtkIsOk.exit.i.i, %8
  %13 = phi ptr [ %12, %8 ], [ null, %Cba_ManNtkIsOk.exit.i.i ], [ null, %3 ]
  %puts = tail call i32 @puts(ptr nonnull dereferenceable(1) @str.2)
  br label %14

14:                                               ; preds = %Cba_ManRoot.exit, %22
  %indvars.iv = phi i64 [ 0, %Cba_ManRoot.exit ], [ %indvars.iv.next, %22 ]
  %15 = getelementptr inbounds nuw i32, ptr %1, i64 %indvars.iv
  %16 = load i32, ptr %15, align 4
  %.not20 = icmp eq i32 %16, 0
  br i1 %.not20, label %22, label %17

17:                                               ; preds = %14
  %.val22 = load ptr, ptr %13, align 8
  %18 = getelementptr inbounds nuw i8, ptr %.val22, i64 112
  %19 = getelementptr inbounds nuw [90 x ptr], ptr %18, i64 0, i64 %indvars.iv
  %20 = load ptr, ptr %19, align 8
  %21 = tail call i32 (ptr, ...) @printf(ptr noundef nonnull dereferenceable(1) @.str.35, ptr noundef %20, i32 noundef %16)
  br label %22

22:                                               ; preds = %14, %17
  %indvars.iv.next = add nuw nsw i64 %indvars.iv, 1
  %exitcond.not = icmp eq i64 %indvars.iv.next, 90
  br i1 %exitcond.not, label %23, label %14, !llvm.loop !22

23:                                               ; preds = %22
  %puts18 = tail call i32 @puts(ptr nonnull dereferenceable(1) @str.3)
  %24 = getelementptr i8, ptr %0, i64 1564
  %.val2326 = load i32, ptr %24, align 4
  %.not.not27 = icmp sgt i32 %.val2326, 1
  br i1 %.not.not27, label %Cba_ManNtk.exit.lr.ph, label %.critedge

Cba_ManNtk.exit.lr.ph:                            ; preds = %23
  %25 = getelementptr i8, ptr %0, i64 1568
  br label %Cba_ManNtk.exit

Cba_ManNtk.exit:                                  ; preds = %Cba_ManNtk.exit.lr.ph, %36
  %.val2333 = phi i32 [ %.val2326, %Cba_ManNtk.exit.lr.ph ], [ %.val23, %36 ]
  %indvars.iv30 = phi i64 [ 1, %Cba_ManNtk.exit.lr.ph ], [ %indvars.iv.next31, %36 ]
  %26 = getelementptr inbounds nuw i32, ptr %2, i64 %indvars.iv30
  %27 = load i32, ptr %26, align 4
  %.not19 = icmp eq i32 %27, 0
  br i1 %.not19, label %36, label %28

28:                                               ; preds = %Cba_ManNtk.exit
  %.val.i = load ptr, ptr %25, align 8
  %29 = getelementptr inbounds nuw ptr, ptr %.val.i, i64 %indvars.iv30
  %30 = load ptr, ptr %29, align 8
  %.val = load ptr, ptr %30, align 8
  %31 = getelementptr i8, ptr %30, i64 12
  %.val21 = load i32, ptr %31, align 4
  %32 = getelementptr i8, ptr %.val, i64 16
  %.val.val = load ptr, ptr %32, align 8
  %33 = tail call ptr @Abc_NamStr(ptr noundef %.val.val, i32 noundef %.val21) #26
  %34 = load i32, ptr %26, align 4
  %35 = tail call i32 (ptr, ...) @printf(ptr noundef nonnull dereferenceable(1) @.str.35, ptr noundef %33, i32 noundef %34)
  %.val23.pre = load i32, ptr %24, align 4
  br label %36

36:                                               ; preds = %Cba_ManNtk.exit, %28
  %.val23 = phi i32 [ %.val2333, %Cba_ManNtk.exit ], [ %.val23.pre, %28 ]
  %indvars.iv.next31 = add nuw nsw i64 %indvars.iv30, 1
  %37 = sext i32 %.val23 to i64
  %.not.not = icmp slt i64 %indvars.iv.next31, %37
  br i1 %.not.not, label %Cba_ManNtk.exit, label %.critedge, !llvm.loop !23

.critedge:                                        ; preds = %36, %23
  ret void
}